; Function Attrs: mustprogress uwtable
define noundef nonnull align 8 dereferenceable(24) ptr @_ZNK6casadi8Function12jac_sparsityEb(ptr noundef nonnull align 8 dereferenceable(8) %0, i1 noundef zeroext %1) local_unnamed_addr #4 align 2 personality ptr @__gxx_personality_v0 {
  %3 = alloca %"class.casadi::Sparsity", align 8
  %4 = tail call noundef ptr @_ZNK6casadi8FunctionptEv(ptr noundef nonnull align 8 dereferenceable(8) %0)
  %5 = getelementptr inbounds nuw i8, ptr %4, i64 184
  %6 = load i64, ptr %5, align 8, !tbaa !183
  %7 = icmp sgt i64 %6, 0
  br i1 %7, label %.preheader, label %._crit_edge11

.preheader:                                       ; preds = %2, %._crit_edge
  %.0810 = phi i64 [ %16, %._crit_edge ], [ 0, %2 ]
  %8 = call noundef ptr @_ZNK6casadi8FunctionptEv(ptr noundef nonnull align 8 dereferenceable(8) %0)
  %9 = getelementptr inbounds nuw i8, ptr %8, i64 176
  %10 = load i64, ptr %9, align 8, !tbaa !264
  %11 = icmp sgt i64 %10, 0
  br i1 %11, label %.lr.ph, label %._crit_edge

._crit_edge11:                                    ; preds = %._crit_edge, %2
  %12 = call noundef ptr @_ZNK6casadi8FunctionptEv(ptr noundef nonnull align 8 dereferenceable(8) %0)
  %13 = getelementptr inbounds nuw i8, ptr %12, i64 664
  %14 = zext i1 %1 to i64
  %15 = getelementptr inbounds nuw [2 x %"class.std::vector.41"], ptr %13, i64 0, i64 %14
  ret ptr %15

._crit_edge:                                      ; preds = %_ZN6casadi13GenericSharedINS_12SharedObjectENS_20SharedObjectInternalEED2Ev.exit, %.preheader
  %16 = add nuw nsw i64 %.0810, 1
  %17 = call noundef ptr @_ZNK6casadi8FunctionptEv(ptr noundef nonnull align 8 dereferenceable(8) %0)
  %18 = getelementptr inbounds nuw i8, ptr %17, i64 184
  %19 = load i64, ptr %18, align 8, !tbaa !183
  %20 = icmp slt i64 %16, %19
  br i1 %20, label %.preheader, label %._crit_edge11, !llvm.loop !556

.lr.ph:                                           ; preds = %.preheader, %_ZN6casadi13GenericSharedINS_12SharedObjectENS_20SharedObjectInternalEED2Ev.exit
  %.09 = phi i64 [ %24, %_ZN6casadi13GenericSharedINS_12SharedObjectENS_20SharedObjectInternalEED2Ev.exit ], [ 0, %.preheader ]
  call void @_ZNK6casadi8Function12jac_sparsityExxb(ptr dead_on_unwind nonnull writable sret(%"class.casadi::Sparsity") align 8 %3, ptr noundef nonnull align 8 dereferenceable(8) %0, i64 noundef %.0810, i64 noundef %.09, i1 noundef zeroext %1)
  invoke void @_ZN6casadi13GenericSharedINS_12SharedObjectENS_20SharedObjectInternalEE10count_downEv(ptr noundef nonnull align 8 dereferenceable(8) %3)
          to label %_ZN6casadi13GenericSharedINS_12SharedObjectENS_20SharedObjectInternalEED2Ev.exit unwind label %21

21:                                               ; preds = %.lr.ph
  %22 = landingpad { ptr, i32 }
          catch ptr null
  %23 = extractvalue { ptr, i32 } %22, 0
  call void @__clang_call_terminate(ptr %23) #32
  unreachable

_ZN6casadi13GenericSharedINS_12SharedObjectENS_20SharedObjectInternalEED2Ev.exit: ; preds = %.lr.ph
  %24 = add nuw nsw i64 %.09, 1
  %25 = call noundef ptr @_ZNK6casadi8FunctionptEv(ptr noundef nonnull align 8 dereferenceable(8) %0)
  %26 = getelementptr inbounds nuw i8, ptr %25, i64 176
  %27 = load i64, ptr %26, align 8, !tbaa !264
  %28 = icmp slt i64 %24, %27
  br i1 %28, label %.lr.ph, label %._crit_edge, !llvm.loop !557
}